; ModuleID = '48/1336.c'
source_filename = "48/1336.c"
target datalayout = "e-m:e-p270:32:32-p271:32:32-p272:64:64-i64:64-f80:128-n8:16:32:64-S128"
target triple = "x86_64-pc-linux-gnu"

@.str = private unnamed_addr constant [5 x i8] c"%d%d\00", align 1
@.str.1 = private unnamed_addr constant [4 x i8] c"%d \00", align 1
@.str.2 = private unnamed_addr constant [4 x i8] c"%d\0A\00", align 1

; Function Attrs: noinline nounwind uwtable
define dso_local i32 @main(i32 %0, i8** %1) #0 {
  %3 = alloca i32, align 4
  %4 = alloca i32, align 4
  %5 = alloca i8**, align 8
  %6 = alloca i32, align 4
  %7 = alloca i32, align 4
  %8 = alloca i32, align 4
  %9 = alloca i32, align 4
  %10 = alloca i32, align 4
  %11 = alloca [9 x [9 x i32]], align 16
  %12 = alloca [9 x [9 x i32]], align 16
  store i32 0, i32* %3, align 4
  store i32 %0, i32* %4, align 4
  store i8** %1, i8*** %5, align 8
  store i32 0, i32* %8, align 4
  br label %13

13:                                               ; preds = %37, %2
  %14 = load i32, i32* %8, align 4
  %15 = icmp slt i32 %14, 9
  br i1 %15, label %16, label %40

16:                                               ; preds = %13
  store i32 0, i32* %9, align 4
  br label %17

17:                                               ; preds = %33, %16
  %18 = load i32, i32* %9, align 4
  %19 = icmp slt i32 %18, 9
  br i1 %19, label %20, label %36

20:                                               ; preds = %17
  %21 = load i32, i32* %8, align 4
  %22 = sext i32 %21 to i64
  %23 = getelementptr inbounds [9 x [9 x i32]], [9 x [9 x i32]]* %11, i64 0, i64 %22
  %24 = load i32, i32* %9, align 4
  %25 = sext i32 %24 to i64
  %26 = getelementptr inbounds [9 x i32], [9 x i32]* %23, i64 0, i64 %25
  store i32 0, i32* %26, align 4
  %27 = load i32, i32* %8, align 4
  %28 = sext i32 %27 to i64
  %29 = getelementptr inbounds [9 x [9 x i32]], [9 x [9 x i32]]* %12, i64 0, i64 %28
  %30 = load i32, i32* %9, align 4
  %31 = sext i32 %30 to i64
  %32 = getelementptr inbounds [9 x i32], [9 x i32]* %29, i64 0, i64 %31
  store i32 0, i32* %32, align 4
  br label %33

33:                                               ; preds = %20
  %34 = load i32, i32* %9, align 4
  %35 = add nsw i32 %34, 1
  store i32 %35, i32* %9, align 4
  br label %17

36:                                               ; preds = %17
  br label %37

37:                                               ; preds = %36
  %38 = load i32, i32* %8, align 4
  %39 = add nsw i32 %38, 1
  store i32 %39, i32* %8, align 4
  br label %13

40:                                               ; preds = %13
  %41 = call i32 (i8*, ...) @__isoc99_scanf(i8* getelementptr inbounds ([5 x i8], [5 x i8]* @.str, i64 0, i64 0), i32* %6, i32* %7)
  %42 = load i32, i32* %6, align 4
  %43 = getelementptr inbounds [9 x [9 x i32]], [9 x [9 x i32]]* %11, i64 0, i64 4
  %44 = getelementptr inbounds [9 x i32], [9 x i32]* %43, i64 0, i64 4
  store i32 %42, i32* %44, align 16
  %45 = load i32, i32* %6, align 4
  %46 = getelementptr inbounds [9 x [9 x i32]], [9 x [9 x i32]]* %12, i64 0, i64 4
  %47 = getelementptr inbounds [9 x i32], [9 x i32]* %46, i64 0, i64 4
  store i32 %45, i32* %47, align 16
  store i32 0, i32* %10, align 4
  br label %48

48:                                               ; preds = %255, %40
  %49 = load i32, i32* %10, align 4
  %50 = load i32, i32* %7, align 4
  %51 = icmp slt i32 %49, %50
  br i1 %51, label %52, label %258

52:                                               ; preds = %48
  store i32 0, i32* %8, align 4
  br label %53

53:                                               ; preds = %222, %52
  %54 = load i32, i32* %8, align 4
  %55 = icmp slt i32 %54, 9
  br i1 %55, label %56, label %225

56:                                               ; preds = %53
  store i32 0, i32* %9, align 4
  br label %57

57:                                               ; preds = %218, %56
  %58 = load i32, i32* %9, align 4
  %59 = icmp slt i32 %58, 9
  br i1 %59, label %60, label %221

60:                                               ; preds = %57
  %61 = load i32, i32* %8, align 4
  %62 = sext i32 %61 to i64
  %63 = getelementptr inbounds [9 x [9 x i32]], [9 x [9 x i32]]* %11, i64 0, i64 %62
  %64 = load i32, i32* %9, align 4
  %65 = sext i32 %64 to i64
  %66 = getelementptr inbounds [9 x i32], [9 x i32]* %63, i64 0, i64 %65
  %67 = load i32, i32* %66, align 4
  %68 = icmp ne i32 %67, 0
  br i1 %68, label %69, label %217

69:                                               ; preds = %60
  %70 = load i32, i32* %8, align 4
  %71 = sext i32 %70 to i64
  %72 = getelementptr inbounds [9 x [9 x i32]], [9 x [9 x i32]]* %11, i64 0, i64 %71
  %73 = load i32, i32* %9, align 4
  %74 = sext i32 %73 to i64
  %75 = getelementptr inbounds [9 x i32], [9 x i32]* %72, i64 0, i64 %74
  %76 = load i32, i32* %75, align 4
  %77 = load i32, i32* %8, align 4
  %78 = sext i32 %77 to i64
  %79 = getelementptr inbounds [9 x [9 x i32]], [9 x [9 x i32]]* %12, i64 0, i64 %78
  %80 = load i32, i32* %9, align 4
  %81 = sext i32 %80 to i64
  %82 = getelementptr inbounds [9 x i32], [9 x i32]* %79, i64 0, i64 %81
  %83 = load i32, i32* %82, align 4
  %84 = add nsw i32 %83, %76
  store i32 %84, i32* %82, align 4
  %85 = load i32, i32* %8, align 4
  %86 = sext i32 %85 to i64
  %87 = getelementptr inbounds [9 x [9 x i32]], [9 x [9 x i32]]* %11, i64 0, i64 %86
  %88 = load i32, i32* %9, align 4
  %89 = sext i32 %88 to i64
  %90 = getelementptr inbounds [9 x i32], [9 x i32]* %87, i64 0, i64 %89
  %91 = load i32, i32* %90, align 4
  %92 = load i32, i32* %8, align 4
  %93 = sext i32 %92 to i64
  %94 = getelementptr inbounds [9 x [9 x i32]], [9 x [9 x i32]]* %12, i64 0, i64 %93
  %95 = load i32, i32* %9, align 4
  %96 = sub nsw i32 %95, 1
  %97 = sext i32 %96 to i64
  %98 = getelementptr inbounds [9 x i32], [9 x i32]* %94, i64 0, i64 %97
  %99 = load i32, i32* %98, align 4
  %100 = add nsw i32 %99, %91
  store i32 %100, i32* %98, align 4
  %101 = load i32, i32* %8, align 4
  %102 = sext i32 %101 to i64
  %103 = getelementptr inbounds [9 x [9 x i32]], [9 x [9 x i32]]* %11, i64 0, i64 %102
  %104 = load i32, i32* %9, align 4
  %105 = sext i32 %104 to i64
  %106 = getelementptr inbounds [9 x i32], [9 x i32]* %103, i64 0, i64 %105
  %107 = load i32, i32* %106, align 4
  %108 = load i32, i32* %8, align 4
  %109 = sext i32 %108 to i64
  %110 = getelementptr inbounds [9 x [9 x i32]], [9 x [9 x i32]]* %12, i64 0, i64 %109
  %111 = load i32, i32* %9, align 4
  %112 = add nsw i32 %111, 1
  %113 = sext i32 %112 to i64
  %114 = getelementptr inbounds [9 x i32], [9 x i32]* %110, i64 0, i64 %113
  %115 = load i32, i32* %114, align 4
  %116 = add nsw i32 %115, %107
  store i32 %116, i32* %114, align 4
  %117 = load i32, i32* %8, align 4
  %118 = sext i32 %117 to i64
  %119 = getelementptr inbounds [9 x [9 x i32]], [9 x [9 x i32]]* %11, i64 0, i64 %118
  %120 = load i32, i32* %9, align 4
  %121 = sext i32 %120 to i64
  %122 = getelementptr inbounds [9 x i32], [9 x i32]* %119, i64 0, i64 %121
  %123 = load i32, i32* %122, align 4
  %124 = load i32, i32* %8, align 4
  %125 = sub nsw i32 %124, 1
  %126 = sext i32 %125 to i64
  %127 = getelementptr inbounds [9 x [9 x i32]], [9 x [9 x i32]]* %12, i64 0, i64 %126
  %128 = load i32, i32* %9, align 4
  %129 = sext i32 %128 to i64
  %130 = getelementptr inbounds [9 x i32], [9 x i32]* %127, i64 0, i64 %129
  %131 = load i32, i32* %130, align 4
  %132 = add nsw i32 %131, %123
  store i32 %132, i32* %130, align 4
  %133 = load i32, i32* %8, align 4
  %134 = sext i32 %133 to i64
  %135 = getelementptr inbounds [9 x [9 x i32]], [9 x [9 x i32]]* %11, i64 0, i64 %134
  %136 = load i32, i32* %9, align 4
  %137 = sext i32 %136 to i64
  %138 = getelementptr inbounds [9 x i32], [9 x i32]* %135, i64 0, i64 %137
  %139 = load i32, i32* %138, align 4
  %140 = load i32, i32* %8, align 4
  %141 = add nsw i32 %140, 1
  %142 = sext i32 %141 to i64
  %143 = getelementptr inbounds [9 x [9 x i32]], [9 x [9 x i32]]* %12, i64 0, i64 %142
  %144 = load i32, i32* %9, align 4
  %145 = sext i32 %144 to i64
  %146 = getelementptr inbounds [9 x i32], [9 x i32]* %143, i64 0, i64 %145
  %147 = load i32, i32* %146, align 4
  %148 = add nsw i32 %147, %139
  store i32 %148, i32* %146, align 4
  %149 = load i32, i32* %8, align 4
  %150 = sext i32 %149 to i64
  %151 = getelementptr inbounds [9 x [9 x i32]], [9 x [9 x i32]]* %11, i64 0, i64 %150
  %152 = load i32, i32* %9, align 4
  %153 = sext i32 %152 to i64
  %154 = getelementptr inbounds [9 x i32], [9 x i32]* %151, i64 0, i64 %153
  %155 = load i32, i32* %154, align 4
  %156 = load i32, i32* %8, align 4
  %157 = sub nsw i32 %156, 1
  %158 = sext i32 %157 to i64
  %159 = getelementptr inbounds [9 x [9 x i32]], [9 x [9 x i32]]* %12, i64 0, i64 %158
  %160 = load i32, i32* %9, align 4
  %161 = sub nsw i32 %160, 1
  %162 = sext i32 %161 to i64
  %163 = getelementptr inbounds [9 x i32], [9 x i32]* %159, i64 0, i64 %162
  %164 = load i32, i32* %163, align 4
  %165 = add nsw i32 %164, %155
  store i32 %165, i32* %163, align 4
  %166 = load i32, i32* %8, align 4
  %167 = sext i32 %166 to i64
  %168 = getelementptr inbounds [9 x [9 x i32]], [9 x [9 x i32]]* %11, i64 0, i64 %167
  %169 = load i32, i32* %9, align 4
  %170 = sext i32 %169 to i64
  %171 = getelementptr inbounds [9 x i32], [9 x i32]* %168, i64 0, i64 %170
  %172 = load i32, i32* %171, align 4
  %173 = load i32, i32* %8, align 4
  %174 = add nsw i32 %173, 1
  %175 = sext i32 %174 to i64
  %176 = getelementptr inbounds [9 x [9 x i32]], [9 x [9 x i32]]* %12, i64 0, i64 %175
  %177 = load i32, i32* %9, align 4
  %178 = sub nsw i32 %177, 1
  %179 = sext i32 %178 to i64
  %180 = getelementptr inbounds [9 x i32], [9 x i32]* %176, i64 0, i64 %179
  %181 = load i32, i32* %180, align 4
  %182 = add nsw i32 %181, %172
  store i32 %182, i32* %180, align 4
  %183 = load i32, i32* %8, align 4
  %184 = sext i32 %183 to i64
  %185 = getelementptr inbounds [9 x [9 x i32]], [9 x [9 x i32]]* %11, i64 0, i64 %184
  %186 = load i32, i32* %9, align 4
  %187 = sext i32 %186 to i64
  %188 = getelementptr inbounds [9 x i32], [9 x i32]* %185, i64 0, i64 %187
  %189 = load i32, i32* %188, align 4
  %190 = load i32, i32* %8, align 4
  %191 = sub nsw i32 %190, 1
  %192 = sext i32 %191 to i64
  %193 = getelementptr inbounds [9 x [9 x i32]], [9 x [9 x i32]]* %12, i64 0, i64 %192
  %194 = load i32, i32* %9, align 4
  %195 = add nsw i32 %194, 1
  %196 = sext i32 %195 to i64
  %197 = getelementptr inbounds [9 x i32], [9 x i32]* %193, i64 0, i64 %196
  %198 = load i32, i32* %197, align 4
  %199 = add nsw i32 %198, %189
  store i32 %199, i32* %197, align 4
  %200 = load i32, i32* %8, align 4
  %201 = sext i32 %200 to i64
  %202 = getelementptr inbounds [9 x [9 x i32]], [9 x [9 x i32]]* %11, i64 0, i64 %201
  %203 = load i32, i32* %9, align 4
  %204 = sext i32 %203 to i64
  %205 = getelementptr inbounds [9 x i32], [9 x i32]* %202, i64 0, i64 %204
  %206 = load i32, i32* %205, align 4
  %207 = load i32, i32* %8, align 4
  %208 = add nsw i32 %207, 1
  %209 = sext i32 %208 to i64
  %210 = getelementptr inbounds [9 x [9 x i32]], [9 x [9 x i32]]* %12, i64 0, i64 %209
  %211 = load i32, i32* %9, align 4
  %212 = add nsw i32 %211, 1
  %213 = sext i32 %212 to i64
  %214 = getelementptr inbounds [9 x i32], [9 x i32]* %210, i64 0, i64 %213
  %215 = load i32, i32* %214, align 4
  %216 = add nsw i32 %215, %206
  store i32 %216, i32* %214, align 4
  br label %217

217:                                              ; preds = %69, %60
  br label %218

218:                                              ; preds = %217
  %219 = load i32, i32* %9, align 4
  %220 = add nsw i32 %219, 1
  store i32 %220, i32* %9, align 4
  br label %57

221:                                              ; preds = %57
  br label %222

222:                                              ; preds = %221
  %223 = load i32, i32* %8, align 4
  %224 = add nsw i32 %223, 1
  store i32 %224, i32* %8, align 4
  br label %53

225:                                              ; preds = %53
  store i32 0, i32* %8, align 4
  br label %226

226:                                              ; preds = %251, %225
  %227 = load i32, i32* %8, align 4
  %228 = icmp slt i32 %227, 9
  br i1 %228, label %229, label %254

229:                                              ; preds = %226
  store i32 0, i32* %9, align 4
  br label %230

230:                                              ; preds = %247, %229
  %231 = load i32, i32* %9, align 4
  %232 = icmp slt i32 %231, 9
  br i1 %232, label %233, label %250

233:                                              ; preds = %230
  %234 = load i32, i32* %8, align 4
  %235 = sext i32 %234 to i64
  %236 = getelementptr inbounds [9 x [9 x i32]], [9 x [9 x i32]]* %12, i64 0, i64 %235
  %237 = load i32, i32* %9, align 4
  %238 = sext i32 %237 to i64
  %239 = getelementptr inbounds [9 x i32], [9 x i32]* %236, i64 0, i64 %238
  %240 = load i32, i32* %239, align 4
  %241 = load i32, i32* %8, align 4
  %242 = sext i32 %241 to i64
  %243 = getelementptr inbounds [9 x [9 x i32]], [9 x [9 x i32]]* %11, i64 0, i64 %242
  %244 = load i32, i32* %9, align 4
  %245 = sext i32 %244 to i64
  %246 = getelementptr inbounds [9 x i32], [9 x i32]* %243, i64 0, i64 %245
  store i32 %240, i32* %246, align 4
  br label %247

247:                                              ; preds = %233
  %248 = load i32, i32* %9, align 4
  %249 = add nsw i32 %248, 1
  store i32 %249, i32* %9, align 4
  br label %230

250:                                              ; preds = %230
  br label %251

251:                                              ; preds = %250
  %252 = load i32, i32* %8, align 4
  %253 = add nsw i32 %252, 1
  store i32 %253, i32* %8, align 4
  br label %226

254:                                              ; preds = %226
  br label %255

255:                                              ; preds = %254
  %256 = load i32, i32* %10, align 4
  %257 = add nsw i32 %256, 1
  store i32 %257, i32* %10, align 4
  br label %48

258:                                              ; preds = %48
  store i32 0, i32* %8, align 4
  br label %259

259:                                              ; preds = %285, %258
  %260 = load i32, i32* %8, align 4
  %261 = icmp slt i32 %260, 9
  br i1 %261, label %262, label %288

262:                                              ; preds = %259
  store i32 0, i32* %9, align 4
  br label %263

263:                                              ; preds = %275, %262
  %264 = load i32, i32* %9, align 4
  %265 = icmp slt i32 %264, 8
  br i1 %265, label %266, label %278

266:                                              ; preds = %263
  %267 = load i32, i32* %8, align 4
  %268 = sext i32 %267 to i64
  %269 = getelementptr inbounds [9 x [9 x i32]], [9 x [9 x i32]]* %11, i64 0, i64 %268
  %270 = load i32, i32* %9, align 4
  %271 = sext i32 %270 to i64
  %272 = getelementptr inbounds [9 x i32], [9 x i32]* %269, i64 0, i64 %271
  %273 = load i32, i32* %272, align 4
  %274 = call i32 (i8*, ...) @printf(i8* getelementptr inbounds ([4 x i8], [4 x i8]* @.str.1, i64 0, i64 0), i32 %273)
  br label %275

275:                                              ; preds = %266
  %276 = load i32, i32* %9, align 4
  %277 = add nsw i32 %276, 1
  store i32 %277, i32* %9, align 4
  br label %263

278:                                              ; preds = %263
  %279 = load i32, i32* %8, align 4
  %280 = sext i32 %279 to i64
  %281 = getelementptr inbounds [9 x [9 x i32]], [9 x [9 x i32]]* %11, i64 0, i64 %280
  %282 = getelementptr inbounds [9 x i32], [9 x i32]* %281, i64 0, i64 8
  %283 = load i32, i32* %282, align 4
  %284 = call i32 (i8*, ...) @printf(i8* getelementptr inbounds ([4 x i8], [4 x i8]* @.str.2, i64 0, i64 0), i32 %283)
  br label %285

285:                                              ; preds = %278
  %286 = load i32, i32* %8, align 4
  %287 = add nsw i32 %286, 1
  store i32 %287, i32* %8, align 4
  br label %259

288:                                              ; preds = %259
  ret i32 0
}

declare dso_local i32 @__isoc99_scanf(i8*, ...) #1

declare dso_local i32 @printf(i8*, ...) #1


!llvm.module.flags = !{!0}
!llvm.ident = !{!1}

!0 = !{i32 1, !"wchar_size", i32 4}
!1 = !{!"clang version 10.0.0-4ubuntu1 "}
