; ModuleID = 'source-C-CXX/47/1336.c'
source_filename = "source-C-CXX/47/1336.c"
target datalayout = "e-m:e-p270:32:32-p271:32:32-p272:64:64-i64:64-f80:128-n8:16:32:64-S128"
target triple = "x86_64-pc-linux-gnu"

@.str = private unnamed_addr constant [5 x i8] c"%d%d\00", align 1
@.str.1 = private unnamed_addr constant [4 x i8] c"%d \00", align 1
@.str.2 = private unnamed_addr constant [4 x i8] c"%d\0A\00", align 1

; Function Attrs: nofree nounwind sspstrong uwtable
define dso_local i32 @main(i32 %0, i8** nocapture readnone %1) local_unnamed_addr #0 {
  %3 = alloca i32, align 4
  %4 = alloca i32, align 4
  %5 = alloca [9 x [9 x i32]], align 16
  %6 = bitcast [9 x [9 x i32]]* %5 to i8*
  %7 = alloca [9 x [9 x i32]], align 16
  %8 = bitcast [9 x [9 x i32]]* %7 to i8*
  %9 = bitcast i32* %3 to i8*
  call void @llvm.lifetime.start.p0i8(i64 4, i8* nonnull %9) #5
  %10 = bitcast i32* %4 to i8*
  call void @llvm.lifetime.start.p0i8(i64 4, i8* nonnull %10) #5
  call void @llvm.lifetime.start.p0i8(i64 324, i8* nonnull %6) #5
  call void @llvm.lifetime.start.p0i8(i64 324, i8* nonnull %8) #5
  call void @llvm.memset.p0i8.i64(i8* noundef nonnull align 16 dereferenceable(324) %6, i8 0, i64 324, i1 false)
  call void @llvm.memset.p0i8.i64(i8* noundef nonnull align 16 dereferenceable(324) %8, i8 0, i64 324, i1 false)
  %11 = call i32 (i8*, ...) @__isoc99_scanf(i8* getelementptr inbounds ([5 x i8], [5 x i8]* @.str, i64 0, i64 0), i32* nonnull %3, i32* nonnull %4)
  %12 = load i32, i32* %3, align 4, !tbaa !5
  %13 = getelementptr inbounds [9 x [9 x i32]], [9 x [9 x i32]]* %5, i64 0, i64 4, i64 4
  store i32 %12, i32* %13, align 16, !tbaa !5
  %14 = getelementptr inbounds [9 x [9 x i32]], [9 x [9 x i32]]* %7, i64 0, i64 4, i64 4
  store i32 %12, i32* %14, align 16, !tbaa !5
  %15 = load i32, i32* %4, align 4, !tbaa !5
  %16 = icmp sgt i32 %15, 0
  br i1 %16, label %17, label %68

17:                                               ; preds = %2, %65
  %18 = phi i32 [ %66, %65 ], [ 0, %2 ]
  br label %19

19:                                               ; preds = %17, %63
  %20 = phi i64 [ 0, %17 ], [ %22, %63 ]
  %21 = add nsw i64 %20, -1
  %22 = add nuw nsw i64 %20, 1
  br label %23

23:                                               ; preds = %19, %60
  %24 = phi i64 [ 0, %19 ], [ %61, %60 ]
  %25 = getelementptr inbounds [9 x [9 x i32]], [9 x [9 x i32]]* %5, i64 0, i64 %20, i64 %24
  %26 = load i32, i32* %25, align 4, !tbaa !5
  %27 = icmp eq i32 %26, 0
  br i1 %27, label %28, label %30

28:                                               ; preds = %23
  %29 = add nuw nsw i64 %24, 1
  br label %60

30:                                               ; preds = %23
  %31 = getelementptr inbounds [9 x [9 x i32]], [9 x [9 x i32]]* %7, i64 0, i64 %20, i64 %24
  %32 = load i32, i32* %31, align 4, !tbaa !5
  %33 = add nsw i32 %32, %26
  store i32 %33, i32* %31, align 4, !tbaa !5
  %34 = add nsw i64 %24, -1
  %35 = getelementptr inbounds [9 x [9 x i32]], [9 x [9 x i32]]* %7, i64 0, i64 %20, i64 %34
  %36 = load i32, i32* %35, align 4, !tbaa !5
  %37 = add nsw i32 %36, %26
  store i32 %37, i32* %35, align 4, !tbaa !5
  %38 = add nuw nsw i64 %24, 1
  %39 = getelementptr inbounds [9 x [9 x i32]], [9 x [9 x i32]]* %7, i64 0, i64 %20, i64 %38
  %40 = load i32, i32* %39, align 4, !tbaa !5
  %41 = add nsw i32 %40, %26
  store i32 %41, i32* %39, align 4, !tbaa !5
  %42 = getelementptr inbounds [9 x [9 x i32]], [9 x [9 x i32]]* %7, i64 0, i64 %21, i64 %24
  %43 = load i32, i32* %42, align 4, !tbaa !5
  %44 = add nsw i32 %43, %26
  store i32 %44, i32* %42, align 4, !tbaa !5
  %45 = getelementptr inbounds [9 x [9 x i32]], [9 x [9 x i32]]* %7, i64 0, i64 %22, i64 %24
  %46 = load i32, i32* %45, align 4, !tbaa !5
  %47 = add nsw i32 %46, %26
  store i32 %47, i32* %45, align 4, !tbaa !5
  %48 = getelementptr inbounds [9 x [9 x i32]], [9 x [9 x i32]]* %7, i64 0, i64 %21, i64 %34
  %49 = load i32, i32* %48, align 4, !tbaa !5
  %50 = add nsw i32 %49, %26
  store i32 %50, i32* %48, align 4, !tbaa !5
  %51 = getelementptr inbounds [9 x [9 x i32]], [9 x [9 x i32]]* %7, i64 0, i64 %22, i64 %34
  %52 = load i32, i32* %51, align 4, !tbaa !5
  %53 = add nsw i32 %52, %26
  store i32 %53, i32* %51, align 4, !tbaa !5
  %54 = getelementptr inbounds [9 x [9 x i32]], [9 x [9 x i32]]* %7, i64 0, i64 %21, i64 %38
  %55 = load i32, i32* %54, align 4, !tbaa !5
  %56 = add nsw i32 %55, %26
  store i32 %56, i32* %54, align 4, !tbaa !5
  %57 = getelementptr inbounds [9 x [9 x i32]], [9 x [9 x i32]]* %7, i64 0, i64 %22, i64 %38
  %58 = load i32, i32* %57, align 4, !tbaa !5
  %59 = add nsw i32 %58, %26
  store i32 %59, i32* %57, align 4, !tbaa !5
  br label %60

60:                                               ; preds = %28, %30
  %61 = phi i64 [ %29, %28 ], [ %38, %30 ]
  %62 = icmp eq i64 %61, 9
  br i1 %62, label %63, label %23, !llvm.loop !9

63:                                               ; preds = %60
  %64 = icmp eq i64 %22, 9
  br i1 %64, label %65, label %19, !llvm.loop !11

65:                                               ; preds = %63
  call void @llvm.memcpy.p0i8.p0i8.i64(i8* noundef nonnull align 16 dereferenceable(324) %6, i8* noundef nonnull align 16 dereferenceable(324) %8, i64 324, i1 false)
  %66 = add nuw nsw i32 %18, 1
  %67 = icmp eq i32 %66, %15
  br i1 %67, label %68, label %17, !llvm.loop !12

68:                                               ; preds = %65, %2
  br label %69

69:                                               ; preds = %68, %69
  %70 = phi i64 [ %98, %69 ], [ 0, %68 ]
  %71 = getelementptr inbounds [9 x [9 x i32]], [9 x [9 x i32]]* %5, i64 0, i64 %70, i64 0
  %72 = load i32, i32* %71, align 4, !tbaa !5
  %73 = call i32 (i8*, ...) @printf(i8* nonnull dereferenceable(1) getelementptr inbounds ([4 x i8], [4 x i8]* @.str.1, i64 0, i64 0), i32 %72)
  %74 = getelementptr inbounds [9 x [9 x i32]], [9 x [9 x i32]]* %5, i64 0, i64 %70, i64 1
  %75 = load i32, i32* %74, align 4, !tbaa !5
  %76 = call i32 (i8*, ...) @printf(i8* nonnull dereferenceable(1) getelementptr inbounds ([4 x i8], [4 x i8]* @.str.1, i64 0, i64 0), i32 %75)
  %77 = getelementptr inbounds [9 x [9 x i32]], [9 x [9 x i32]]* %5, i64 0, i64 %70, i64 2
  %78 = load i32, i32* %77, align 4, !tbaa !5
  %79 = call i32 (i8*, ...) @printf(i8* nonnull dereferenceable(1) getelementptr inbounds ([4 x i8], [4 x i8]* @.str.1, i64 0, i64 0), i32 %78)
  %80 = getelementptr inbounds [9 x [9 x i32]], [9 x [9 x i32]]* %5, i64 0, i64 %70, i64 3
  %81 = load i32, i32* %80, align 4, !tbaa !5
  %82 = call i32 (i8*, ...) @printf(i8* nonnull dereferenceable(1) getelementptr inbounds ([4 x i8], [4 x i8]* @.str.1, i64 0, i64 0), i32 %81)
  %83 = getelementptr inbounds [9 x [9 x i32]], [9 x [9 x i32]]* %5, i64 0, i64 %70, i64 4
  %84 = load i32, i32* %83, align 4, !tbaa !5
  %85 = call i32 (i8*, ...) @printf(i8* nonnull dereferenceable(1) getelementptr inbounds ([4 x i8], [4 x i8]* @.str.1, i64 0, i64 0), i32 %84)
  %86 = getelementptr inbounds [9 x [9 x i32]], [9 x [9 x i32]]* %5, i64 0, i64 %70, i64 5
  %87 = load i32, i32* %86, align 4, !tbaa !5
  %88 = call i32 (i8*, ...) @printf(i8* nonnull dereferenceable(1) getelementptr inbounds ([4 x i8], [4 x i8]* @.str.1, i64 0, i64 0), i32 %87)
  %89 = getelementptr inbounds [9 x [9 x i32]], [9 x [9 x i32]]* %5, i64 0, i64 %70, i64 6
  %90 = load i32, i32* %89, align 4, !tbaa !5
  %91 = call i32 (i8*, ...) @printf(i8* nonnull dereferenceable(1) getelementptr inbounds ([4 x i8], [4 x i8]* @.str.1, i64 0, i64 0), i32 %90)
  %92 = getelementptr inbounds [9 x [9 x i32]], [9 x [9 x i32]]* %5, i64 0, i64 %70, i64 7
  %93 = load i32, i32* %92, align 4, !tbaa !5
  %94 = call i32 (i8*, ...) @printf(i8* nonnull dereferenceable(1) getelementptr inbounds ([4 x i8], [4 x i8]* @.str.1, i64 0, i64 0), i32 %93)
  %95 = getelementptr inbounds [9 x [9 x i32]], [9 x [9 x i32]]* %5, i64 0, i64 %70, i64 8
  %96 = load i32, i32* %95, align 4, !tbaa !5
  %97 = call i32 (i8*, ...) @printf(i8* nonnull dereferenceable(1) getelementptr inbounds ([4 x i8], [4 x i8]* @.str.2, i64 0, i64 0), i32 %96)
  %98 = add nuw nsw i64 %70, 1
  %99 = icmp eq i64 %98, 9
  br i1 %99, label %100, label %69, !llvm.loop !13

100:                                              ; preds = %69
  call void @llvm.lifetime.end.p0i8(i64 324, i8* nonnull %8) #5
  call void @llvm.lifetime.end.p0i8(i64 324, i8* nonnull %6) #5
  call void @llvm.lifetime.end.p0i8(i64 4, i8* nonnull %10) #5
  call void @llvm.lifetime.end.p0i8(i64 4, i8* nonnull %9) #5
  ret i32 0
}

; Function Attrs: argmemonly mustprogress nofree nosync nounwind willreturn
declare void @llvm.lifetime.start.p0i8(i64 immarg, i8* nocapture) #1

; Function Attrs: nofree nounwind
declare noundef i32 @__isoc99_scanf(i8* nocapture noundef readonly, ...) local_unnamed_addr #2

; Function Attrs: nofree nounwind
declare noundef i32 @printf(i8* nocapture noundef readonly, ...) local_unnamed_addr #2

; Function Attrs: argmemonly mustprogress nofree nosync nounwind willreturn
declare void @llvm.lifetime.end.p0i8(i64 immarg, i8* nocapture) #1

; Function Attrs: argmemonly nofree nounwind willreturn writeonly
declare void @llvm.memset.p0i8.i64(i8* nocapture writeonly, i8, i64, i1 immarg) #3

; Function Attrs: argmemonly nofree nounwind willreturn
declare void @llvm.memcpy.p0i8.p0i8.i64(i8* noalias nocapture writeonly, i8* noalias nocapture readonly, i64, i1 immarg) #4


!llvm.module.flags = !{!0, !1, !2, !3}
!llvm.ident = !{!4}

!0 = !{i32 1, !"wchar_size", i32 4}
!1 = !{i32 7, !"PIC Level", i32 2}
!2 = !{i32 7, !"PIE Level", i32 2}
!3 = !{i32 7, !"uwtable", i32 1}
!4 = !{!"clang version 13.0.0"}
!5 = !{!6, !6, i64 0}
!6 = !{!"int", !7, i64 0}
!7 = !{!"omnipotent char", !8, i64 0}
!8 = !{!"Simple C/C++ TBAA"}
!9 = distinct !{!9, !10}
!10 = !{!"llvm.loop.mustprogress"}
!11 = distinct !{!11, !10}
!12 = distinct !{!12, !10}
!13 = distinct !{!13, !10}
